; Function Attrs: nounwind uwtable
define hidden void @je_base_stats_get(ptr noundef %0, ptr noundef %1, ptr noundef writeonly captures(none) initializes((0, 8)) %2, ptr noundef writeonly captures(none) initializes((0, 8)) %3, ptr noundef writeonly captures(none) initializes((0, 8)) %4, ptr noundef writeonly captures(none) initializes((0, 8)) %5) local_unnamed_addr #1 {
  %7 = getelementptr inbounds nuw i8, ptr %1, i64 96
  %8 = tail call i32 @pthread_mutex_trylock(ptr noundef nonnull %7) #9
  %.not.i = icmp eq i32 %8, 0
  br i1 %.not.i, label %12, label %9

9:                                                ; preds = %6
  %10 = getelementptr inbounds nuw i8, ptr %1, i64 32
  tail call void @je_malloc_mutex_lock_slow(ptr noundef nonnull %10) #9
  %11 = getelementptr inbounds nuw i8, ptr %1, i64 136
  store atomic i8 1, ptr %11 monotonic, align 1
  br label %12

12:                                               ; preds = %9, %6
  %13 = getelementptr inbounds nuw i8, ptr %1, i64 88
  %14 = load i64, ptr %13, align 8, !tbaa !42
  %15 = add i64 %14, 1
  store i64 %15, ptr %13, align 8, !tbaa !42
  %16 = getelementptr inbounds nuw i8, ptr %1, i64 80
  %17 = load ptr, ptr %16, align 8, !tbaa !47
  %.not.i.i = icmp eq ptr %17, %0
  br i1 %.not.i.i, label %malloc_mutex_lock.exit, label %18

18:                                               ; preds = %12
  store ptr %0, ptr %16, align 8, !tbaa !47
  %19 = getelementptr inbounds nuw i8, ptr %1, i64 72
  %20 = load i64, ptr %19, align 8, !tbaa !48
  %21 = add i64 %20, 1
  store i64 %21, ptr %19, align 8, !tbaa !48
  br label %malloc_mutex_lock.exit

malloc_mutex_lock.exit:                           ; preds = %12, %18
  %22 = getelementptr inbounds nuw i8, ptr %1, i64 3928
  %23 = load i64, ptr %22, align 8, !tbaa !30
  store i64 %23, ptr %2, align 8, !tbaa !11
  %24 = getelementptr inbounds nuw i8, ptr %1, i64 3936
  %25 = load i64, ptr %24, align 8, !tbaa !31
  store i64 %25, ptr %3, align 8, !tbaa !11
  %26 = getelementptr inbounds nuw i8, ptr %1, i64 3944
  %27 = load i64, ptr %26, align 8, !tbaa !32
  store i64 %27, ptr %4, align 8, !tbaa !11
  %28 = getelementptr inbounds nuw i8, ptr %1, i64 3952
  %29 = load i64, ptr %28, align 8, !tbaa !33
  store i64 %29, ptr %5, align 8, !tbaa !11
  %30 = getelementptr inbounds nuw i8, ptr %1, i64 136
  store atomic i8 0, ptr %30 monotonic, align 1
  %31 = tail call i32 @pthread_mutex_unlock(ptr noundef nonnull %7) #9
  ret void
}